(dp0
S'HEADER'
p1
S'This is a GPI Network File'
p2
sS'GPI_VERSION'
p3
S'0.2.0-n1'
p4
sS'PLATFORM'
p5
(dp6
S'OSX'
p7
S'10.10'
p8
sS'PYTHON_VERSION'
p9
S'2.7.6'
p10
sS'PYTHON'
p11
S'CPython'
p12
sS'TOTAL_PHYMEM'
p13
L17179869184L
sS'NUM_CPUS'
p14
I8
sS'HOSTNAME'
p15
S'tron.local'
p16
sg5
S'Darwin-14.0.0-x86_64-i386-64bit'
p17
sS'TOTAL_PHYMEM_STR'
p18
S'16.00 GB'
p19
sS'OS'
p20
S'Darwin'
p21
ssS'DATETIME'
p22
S'Fri Nov  7 12:31:59 2014'
p23
sS'NETWORK_VERSION'
p24
S'2'
p25
sS'layouts'
p26
(lp27
sS'TOTAL_PMEM'
p28
S'14452624'
p29
sS'nodes'
p30
(dp31
S'macroNodes'
p32
(lp33
sg30
(lp34
(dp35
S'widget_settings'
p36
(dp37
S'parms'
p38
(lp39
(dp40
S'type'
p41
S"<class 'gpi.widgets.TextBox'>"
p42
sS'name'
p43
S'I/O Info:'
p44
sS'kwargs'
p45
(dp46
S'openExternalLinks'
p47
I00
sS'outport'
p48
I00
sS'quietval'
p49
NsS'val'
p50
S'input: (436, 436)\noutput: (436,)'
p51
sS'collapsed'
p52
I00
sS'inport'
p53
I00
sS'visible'
p54
I01
sS'wordwrap'
p55
I00
sS'id'
p56
I4685274008
ssa(dp57
g41
S"<class '/opt/gpi/lib/core/shapers/GPI/Reduce_GPI.ReduceSliders'>"
p58
sg43
S'Dimension[-1]'
p59
sg45
(dp60
S'outport'
p61
I00
sS'quietval'
p62
Nsg50
(dp63
S'width'
p64
I436
sS'ceiling'
p65
I436
sS'selection'
p66
I3
sS'center'
p67
I219
sS'floor'
p68
I1
ssS'min'
p69
I1
sS'max'
p70
I436
sS'collapsed'
p71
I00
sS'inport'
p72
I00
sS'visible'
p73
I01
sS'id'
p74
I4685274464
ssa(dp75
g41
S"<class '/opt/gpi/lib/core/shapers/GPI/Reduce_GPI.ReduceSliders'>"
p76
sg43
S'Dimension[-2]'
p77
sg45
(dp78
S'outport'
p79
I00
sS'quietval'
p80
Nsg50
(dp81
g64
I1
sg65
I265
sg66
I2
sg67
I265
sg68
I265
ssS'min'
p82
I1
sS'max'
p83
I436
sS'collapsed'
p84
I00
sS'inport'
p85
I00
sS'visible'
p86
I01
sS'id'
p87
I4685291904
ssa(dp88
g41
S"<class '/opt/gpi/lib/core/shapers/GPI/Reduce_GPI.ReduceSliders'>"
p89
sg43
S'Dimension[-3]'
p90
sg45
(dp91
S'outport'
p92
I00
sS'quietval'
p93
Nsg50
(dp94
g64
I436
sg65
I436
sg66
I3
sg67
I219
sg68
I1
ssS'min'
p95
I1
sS'max'
p96
I436
sS'collapsed'
p97
I00
sS'inport'
p98
I00
sS'visible'
p99
I00
sS'id'
p100
I4685296912
ssa(dp101
g41
S"<class '/opt/gpi/lib/core/shapers/GPI/Reduce_GPI.ReduceSliders'>"
p102
sg43
S'Dimension[-4]'
p103
sg45
(dp104
S'outport'
p105
I00
sS'quietval'
p106
Nsg50
(dp107
g64
I100
sg65
I100
sg66
I3
sg67
I51
sg68
I1
ssS'min'
p108
I1
sS'max'
p109
I100
sS'collapsed'
p110
I00
sS'inport'
p111
I00
sS'visible'
p112
I00
sS'id'
p113
I4707403936
ssa(dp114
g41
S"<class '/opt/gpi/lib/core/shapers/GPI/Reduce_GPI.ReduceSliders'>"
p115
sg43
S'Dimension[-5]'
p116
sg45
(dp117
S'outport'
p118
I00
sS'quietval'
p119
Nsg50
(dp120
g64
I100
sg65
I100
sg66
I3
sg67
I51
sg68
I1
ssS'min'
p121
I1
sS'max'
p122
I100
sS'collapsed'
p123
I00
sS'inport'
p124
I00
sS'visible'
p125
I00
sS'id'
p126
I4707408792
ssa(dp127
g41
S"<class '/opt/gpi/lib/core/shapers/GPI/Reduce_GPI.ReduceSliders'>"
p128
sg43
S'Dimension[-6]'
p129
sg45
(dp130
S'outport'
p131
I00
sS'quietval'
p132
Nsg50
(dp133
g64
I100
sg65
I100
sg66
I3
sg67
I51
sg68
I1
ssS'min'
p134
I1
sS'max'
p135
I100
sS'collapsed'
p136
I00
sS'inport'
p137
I00
sS'visible'
p138
I00
sS'id'
p139
I4707413800
ssa(dp140
g41
S"<class '/opt/gpi/lib/core/shapers/GPI/Reduce_GPI.ReduceSliders'>"
p141
sg43
S'Dimension[-7]'
p142
sg45
(dp143
S'outport'
p144
I00
sS'quietval'
p145
Nsg50
(dp146
g64
I100
sg65
I100
sg66
I3
sg67
I51
sg68
I1
ssS'min'
p147
I1
sS'max'
p148
I100
sS'collapsed'
p149
I00
sS'inport'
p150
I00
sS'visible'
p151
I00
sS'id'
p152
I4707418952
ssa(dp153
g41
S"<class '/opt/gpi/lib/core/shapers/GPI/Reduce_GPI.ReduceSliders'>"
p154
sg43
S'Dimension[-8]'
p155
sg45
(dp156
S'outport'
p157
I00
sS'quietval'
p158
Nsg50
(dp159
g64
I100
sg65
I100
sg66
I3
sg67
I51
sg68
I1
ssS'min'
p160
I1
sS'max'
p161
I100
sS'collapsed'
p162
I00
sS'inport'
p163
I00
sS'visible'
p164
I00
sS'id'
p165
I4707423960
ssa(dp166
g41
S"<class '/opt/gpi/lib/core/shapers/GPI/Reduce_GPI.ReduceSliders'>"
p167
sg43
S'Dimension[-9]'
p168
sg45
(dp169
S'outport'
p170
I00
sS'quietval'
p171
Nsg50
(dp172
g64
I100
sg65
I100
sg66
I3
sg67
I51
sg68
I1
ssS'min'
p173
I1
sS'max'
p174
I100
sS'collapsed'
p175
I00
sS'inport'
p176
I00
sS'visible'
p177
I00
sS'id'
p178
I4707428968
ssa(dp179
g41
S"<class '/opt/gpi/lib/core/shapers/GPI/Reduce_GPI.ReduceSliders'>"
p180
sg43
S'Dimension[-10]'
p181
sg45
(dp182
S'outport'
p183
I00
sS'quietval'
p184
Nsg50
(dp185
g64
I100
sg65
I100
sg66
I3
sg67
I51
sg68
I1
ssS'min'
p186
I1
sS'max'
p187
I100
sS'collapsed'
p188
I00
sS'inport'
p189
I00
sS'visible'
p190
I00
sS'id'
p191
I4707433976
ssa(dp192
g41
S"<class 'gpi.widgets.PushButton'>"
p193
sg43
S'Mask'
p194
sg45
(dp195
S'outport'
p196
I00
sS'quietval'
p197
Nsg50
I01
sS'collapsed'
p198
I00
sS'inport'
p199
I00
sS'visible'
p200
I01
sS'toggle'
p201
I01
sS'button_title'
p202
V
p203
sS'id'
p204
I4707439128
ssa(dp205
g41
S"<class 'gpi.widgets.PushButton'>"
p206
sg43
S'Compute'
p207
sg45
(dp208
S'outport'
p209
I00
sS'quietval'
p210
Nsg50
I01
sS'collapsed'
p211
I00
sS'inport'
p212
I00
sS'visible'
p213
I01
sS'toggle'
p214
I01
sS'button_title'
p215
g203
sS'id'
p216
I4707439888
ssasS'label'
p217
S''
p218
ssS'avgwalltime'
p219
S'0.150909384092'
p220
sg43
S'Reduce'
p221
sS'pos'
p222
(lp223
F117.6
aF20.799999999999997
asS'ports'
p224
(lp225
(dp226
S'porttitle'
p227
S'in'
p228
sS'portnum'
p229
I0
sS'connections'
p230
(lp231
(dp232
S'dest'
p233
(dp234
S'portName'
p235
g228
sS'portID'
p236
I4707440648
sS'portNum'
p237
I0
sS'nodeID'
p238
I4685271576
ssS'src'
p239
(dp240
g235
S'mask'
p241
sg236
I4707539104
sg237
I1
sg238
I4707463552
ssasS'widgetTitle'
p242
NsS'porttype'
p243
I65540
sS'obligation'
p244
I100
sS'id'
p245
I4707440648
sa(dp246
g227
S'out'
p247
sg229
I0
sg230
(lp248
(dp249
g233
(dp250
g235
S'in2'
p251
sg236
I4707579304
sg237
I2
sg238
I4707557608
ssg239
(dp252
g235
g247
sg236
I4707440800
sg237
I0
sg238
I4685271576
ssasg242
Nsg243
I65541
sg244
Nsg245
I4707440800
sa(dp253
g227
g241
sg229
I1
sg230
(lp254
(dp255
g233
(dp256
g235
g228
sg236
I4685043568
sg237
I0
sg238
I4683504384
ssg239
(dp257
g235
g241
sg236
I4707440952
sg237
I1
sg238
I4685271576
ssasg242
Nsg243
I65541
sg244
Nsg245
I4707440952
sasS'stdwalltime'
p258
S'0.00916959383878'
p259
sS'key'
p260
S'core.shapers.Reduce'
p261
sg245
I4685271576
sS'walltime'
p262
S'0.148681879044'
p263
sa(dp264
g36
(dp265
g38
(lp266
(dp267
g41
S"<class 'gpi.widgets.TextBox'>"
p268
sg43
S'I/O Info:'
p269
sg45
(dp270
S'openExternalLinks'
p271
I00
sS'outport'
p272
I00
sS'quietval'
p273
Nsg50
S'created: 07/11/2014\naccessed: 07/11/2014\nmodified: 07/11/2014\nUID: 501\nGID: 20\nfile size (bytes): 4562400\ndimensions: [3, 436, 436, 2]\ntype: float32\n'
p274
sS'collapsed'
p275
I00
sS'inport'
p276
I00
sS'visible'
p277
I01
sS'wordwrap'
p278
I00
sS'id'
p279
I4685068752
ssa(dp280
g41
S"<class 'gpi.widgets.OpenFileBrowser'>"
p281
sg43
S'File Browser'
p282
sg45
(dp283
S'outport'
p284
I00
sS'quietval'
p285
Nsg50
S'/opt/gpi/doc/Examples/t2vol.npy'
p286
sS'collapsed'
p287
I00
sS'inport'
p288
I00
sS'visible'
p289
I01
sS'id'
p290
I4685069208
ssa(dp291
g41
S"<class 'gpi.widgets.PushButton'>"
p292
sg43
S'Squeeze'
p293
sg45
(dp294
S'outport'
p295
I00
sS'quietval'
p296
Nsg50
I00
sS'collapsed'
p297
I00
sS'inport'
p298
I00
sS'visible'
p299
I01
sS'toggle'
p300
I01
sS'button_title'
p301
g203
sS'id'
p302
I4685069816
ssasg217
g218
ssg219
S'0.114581465721'
p303
sg43
S'ReadNPY'
p304
sg222
(lp305
F-46.900000000000006
aF-100.2
asg224
(lp306
(dp307
g227
g247
sg229
I0
sg230
(lp308
(dp309
g233
(dp310
g235
S'inLeft'
p311
sg236
I4683495128
sg237
I0
sg238
I4683439304
ssg239
(dp312
g235
g247
sg236
I4685074816
sg237
I0
sg238
I4685066320
ssasg242
Nsg243
I65541
sg244
Nsg245
I4685074816
sasg258
S'0.00937259197211'
p313
sg260
S'core.fileIO.ReadNPY'
p314
sg245
I4685066320
sg262
S'0.105208873749'
p315
sa(dp316
g36
(dp317
g38
(lp318
(dp319
g41
S"<class 'gpi.widgets.ExclusiveRadioButtons'>"
p320
sg43
S'Operation'
p321
sg45
(dp322
S'outport'
p323
I00
sS'quietval'
p324
Nsg50
I3
sS'collapsed'
p325
I00
sS'inport'
p326
I00
sS'visible'
p327
I01
sS'id'
p328
I4683495584
ssa(dp329
g41
S"<class 'gpi.widgets.ExclusiveRadioButtons'>"
p330
sg43
S'Combine Operation'
p331
sg45
(dp332
S'outport'
p333
I00
sS'quietval'
p334
Nsg50
I0
sS'collapsed'
p335
I00
sS'inport'
p336
I00
sS'visible'
p337
I00
sS'id'
p338
I4683496496
ssa(dp339
g41
S"<class 'gpi.widgets.ExclusivePushButtons'>"
p340
sg43
S'Phase'
p341
sg45
(dp342
S'outport'
p343
I00
sS'quietval'
p344
Nsg50
I0
sS'collapsed'
p345
I00
sS'inport'
p346
I00
sS'visible'
p347
I01
sS'id'
p348
I4683497104
ssa(dp349
g41
S"<class 'gpi.widgets.ExclusivePushButtons'>"
p350
sg43
S'OutType'
p351
sg45
(dp352
S'outport'
p353
I00
sS'quietval'
p354
Nsg50
I0
sS'collapsed'
p355
I00
sS'inport'
p356
I00
sS'visible'
p357
I01
sS'id'
p358
I4683501952
ssasg217
g218
ssg219
S'0.463101983071'
p359
sg43
S'ToComplex'
p360
sg222
(lp361
F-46.900000000000006
aF-70.2
asg224
(lp362
(dp363
g227
g311
sg229
I0
sg230
(lp364
(dp365
g233
(dp366
g235
g311
sg236
I4683495128
sg237
I0
sg238
I4683439304
ssg239
(dp367
g235
g247
sg236
I4685074816
sg237
I0
sg238
I4685066320
ssasg242
Nsg243
I65540
sg244
I200
sg245
I4683495128
sa(dp368
g227
S'inRight'
p369
sg229
I1
sg230
(lp370
sg242
Nsg243
I65540
sg244
I200
sg245
I4683495280
sa(dp371
g227
g247
sg229
I0
sg230
(lp372
(dp373
g233
(dp374
g235
g228
sg236
I4707785320
sg237
I0
sg238
I4707677456
ssg239
(dp375
g235
g247
sg236
I4683495432
sg237
I0
sg238
I4683439304
ssasg242
Nsg243
I65541
sg244
Nsg245
I4683495432
sasg258
S'0.303730845451'
p376
sg260
S'core.shapers.ToComplex'
p377
sg245
I4683439304
sg262
S'0.159371137619'
p378
sa(dp379
g36
(dp380
g38
(lp381
(dp382
g41
S"<class '/opt/gpi/lib/core/display/GPI/Matplotlib_GPI.MatplotDisplay'>"
p383
sg43
S'Plot'
p384
sg45
(dp385
S'outport'
p386
I00
sS'quietval'
p387
Nsg50
(lp388
cnumpy.core.multiarray
_reconstruct
p389
(cnumpy
ndarray
p390
(I0
tp391
S'b'
p392
tp393
Rp394
(I1
(I436
tp395
cnumpy
dtype
p396
(S'f4'
p397
I0
I1
tp398
Rp399
(I3
S'<'
p400
NNNI-1
I-1
I0
tp401
bI00
S'\x00\x00\x00\x00\x00\x00\x00\x00Yx\x83D\x9bL\x1bD\x84-)D\xfdw7D&\xef\xdbC;\xbc#DjgzD5\xabdD\x02\x80\x1cDNx\xf4Cw\x0b\x1aD ~LD\xf4\x8d\xacC^\x0b\tDd\xcc^D\xf0\xcc\x05DqX\xd5C/YcC\xf4\xcc\x05D\x9c\xb4;D(\xc3\rD\xaa}\xa2C\x01\x11\x02D\'\xef\x00Cyk\xbfC0LyD[\xf9ED\xef\xf4\xd5C\x03$[Dx\xe6\xfcCRc\xa9C\x12\xe8\xbdC-2\nD\xa6nuC\x9c\\\x8bC\xc9\xc8\xf4CG\xa0\x9cC\x1c\xaaaD=\x12\x8aD\xfe\xd6rC.\xc6\x9aBD\x93)D:*"C\x87\x83\xb0C\xcbP\x1fDa\xd1\xf0C\x05<=D\n\ncD\xbcKgCR\x199C%D\x15D\xd5B8D\xedRDD\x9ag\xc2C\xe1v\x0fD\xce*\x1dC\xb8\xd4\x95D\xed<:D\x9f\xf6\x1dD\xb3SaC\xee}\x85C\xc0,\xc5C\x9d0\x16D\x14m\xcfCv`\xd0C\x90\x03\tD\x8e\xcf\xe6C\xb5[iD\x12s D\xc7[0D\x12u7D\xd3\x1d8D\x95\x1e\xc6CT\xab*D\xbc\xcb\xf1D\\\':D\x011\xccDq\x89\xf0D(\xb56E\x87b~E^o\xb0E3!\xe2Ek+\xe5E\x95\xea\x14F\x8bg\x0fF\xady\x16FT\x865FC\xf8\x9dEj!\x06E\x7fV\x89E\x0bj}E\xdc\x83\x9dE\xe4\x0f\x8eE\xc2ftESk^E\xba\xae\x8aE\xcf\xda\x95E \xd0\x98E\xfd\x83eE\x14O\'E.\\\xa5D.I=DH\x1d\xf9C\x01\x98\xa5D\xec\xd3\xf4D9C\xc6E\x90UpFb\xb6\x8cF\xcf\x1c=F\xce\x0c$Fs\xa2,F_\xe9&F\nd\x16F\x9d\xf0CFk\x82|Fy\xf3\x8fF\x93\xcc\x83FDV@F\x1b3MF\xa6\x14UF\xc2\x8e\x81F\xdd\xba\x85F|\xe8\x8bF\xbcr\x82F\xa1Q]F\xe4DGF3c%F\x027\x0cF9m\xf6E\x00v\xfcE\xbd\\\xcaE\xces\x03Flo\x10FYR\x08F\xd4\x88\x00F\x16\x05\xdcE\xbd\xb0\xc9E\xb4\xb4\xcaEb\xba\xd0E\x8bN\xe4E\x8a0\xe5E\xba\xa7\xdeE3y\xbaE\xfbM\xbaE\x0f\xa4\xc7E\x8a\xcf\xcaE\x0fE\xd7E_\x14\xc6E\xec\xf4\xd2E\xd5,\xd7Ew9\xc2E\x9c\xec\xe6E@\xcf\xc5EGJ\xc5E{\xe6\xcfE9v\xc6E\xa7\x8c\xf4Ee\xb1\xe0E|\x10\xc7E-\x04\xebE\x0b\xea\xe7Eu\xcc\xd1E3\xe8\xe9E\xdcu\xd3E\x85m\xe7E\xab\xc1\xcfE\xbc\x85\xcbE\xf5\x0f\xb5E7\xd6\xcaEC\xdc\xa9E0\xd8\xcaEFo\xf5EZ\xe3\xbdEw\xe9\xb5Ev_\xaaE\'\xd9\xceE\x08\xe4\xdeE\xd9\xef\xd6E\xdf\xdf\xd3E#\x1c\xbcE"@\xc2E\x9c\xc5\xe2E\xaaP\xc2E\xf2\xbd\xb6E\xfc^\xb1E\x90g\xaeE\xfeb\xafE\xfct\xb7E\xeb.\xaeE\xd25\xbfE\xba\x9a\xc4EM)\xc1E\xb5\xc3\xb7E\xd2\xff\xf1E4h\xd0E\xbd4\xd2E\xce\x14\xd5E\xae\x0f\xe9E\xc8Q\xf9E\xe4\n\x08F\x9c!\xf9E\xb6\x1b\xfcEXB\x04Ftq\x1eF\xdb:\x13F\x19-LF\xd3\x8b\xb5F\\\xa1\xc3Fxm\xbeF.T\xbdF@\xcf\xbeF\x8fR\xc0F\x9b\x9e\xc2Fp\xb7\xc3F\xec(\xc5F\x08*\xcdF-\x17\xc7F\x177\xc5F\xc9*\xcaFBm\xcbF?#\xccF\xcaf\xc9F\x16\x81\xc5F={\xb5Fs\xc6\x82FVuHF\xb9\x08\xa3F\x86\xd5\xc2F\xec\xf5\xc8Fk\xaa\xc4F\n\xd6\xc2F6\x00\xbdF\xb81\xc2F=&\xc6F\xbb\x1d\xbaF\xd1\x84\xbcF\x02\xa9\xbdF\xffg\xbaF\xa55\xc1F\xcar\xb4F\xe3\x96*F\xff_\nF\x08\xd5$F\x9c\xab\tF\x008\x07F}t\xf4E0\xaa\nF\x12d\x0fF\xa8\xa1\xedEk{\xeeE\x8f\x1c\xf3E\x9f\x1d\xd8E\x8d\x00\xf2E\xf3\xb4\xd2Ec\x9f\x9eE?\xe3\xaeEaA\xb5E2S\x9eE]Y\xabE\xb3\x05\x90Ep\xaf\x9eE\xac!\x89E\xd3R\xd6E\xd8\x11\xb2E5?\x89E}\x9f\x9fE\xa8\x80\xa8E\xe1\xed\xb0El\xd4\xa2E\xf4\x03\xa7E\xb1r\xb1E\xeeI\xa1Ew\xba\xb6E\xbd\xa6\xabE\x16\x9e\xbfE\xe4R\xa7E\t^\xb4Ez\x9d\xa1E\x15\xba\xccE\xb3\x8a\xdaE\xcd\xcb\xc4E\xe7\x0b\xd9E4\x95\xf5E%I\xc8E\xba\x9c\xd9E\xacH\xc1E\x05\xf9\xa4E\x13o\xc6EL\x8b\x9fEM\x92\xafEI\xb8\xb7E\xc8f\xa3EL&\xb7E\x0f\xf7\xaaE%\xa1\x9dE>\xdd\x9aEZ\x1c\xabE\x98\x16\xb8E\xc5\r\xc2EI\x1e\xe3E>#\xcfEXz\xefE\xeb\x02\x17F\xb3\xa6\x13F\xf5\xb9\x0bFU\x8e\x07F\x8b\xd3\x19F\xa7{\x00F\xf08\x0fF1\x92\x1fF\x89\x91\tF\x9d\xaa\x16F69\x07FKR\x0bF\xca\x0e\rF%s\tF\\\xfe\x01F\xe9.\xe0Ev\x80\xe9E\xe8n\xdaEV\x98\xbbE,\xd2\xbaEV;\xf5E,}\x03F\xc2\t\xecE\x1f\x82\x1bF\xce\xd8\tF\xa7U\x18F:\xda\x12F\xc3\x866F\xb0I&F%\x81hFJ\x82ZFZ\xa8dF%\xc5\xedE\xac\xf2\x8cD\'x\xaeDH\x90\x0eE\r\xcc\xc9Dk\xca\xb9D9X\xafD\x91\x98\x14E\xf5B\x9bE\xc4\xe7<E\xd9\x17WE\xe1\xe07E{_yE\x07JUE=\xb4\x8fE^>\xa9Ee\x13\xc2E\xe8\xb2\x9eE8l\xf5E\xf9$%F\x11\xbd\x1dF\x08\x00\xfdER\x89\xb8E\x8d=\xb9E\xe1\xda\xa2E\xe5\x05&E\xc8\xed\xc2D5\xbf\xcfD\x8cl\xabD\xa9fgD+\x0e\x9cD\x05\x98\x00D\x9e\x05}D\x99hvD\tY\x8eD`_TD\x0b\xd0\xa5CM\x80\x02De\r\xabC9s\x94CI\x86+D\x1b\xb6\x03DCD-D\xd4\x86iD \xe3\x87DK\x96\xfdC\x06\x01\xe4C\xe1\xeb\xb4C<.EC\xc9\x8bCD\xbf\xbe\xc7C\xdaEKCk\tXD\x1a\x19\x8fC\x06\x83\x1dD\x0f\xaeDD`\xc5$D!\x9a\xd6C\xcb\x94\xf3C1\x00\xf4C\xf8\xe0\xb4B\xe5\xbc\rDz\xac\x1eDz\xd5\x0bDi\x7f7C\x98:\x0fD\x0e\x0f\xbdC\xcd\xa8@D\xc2\x85_D\xcan\xb1Cn5\xa3CEA"C\x8d\xa6,D\xd1\xcd\x97C\xf0\xd6!D\xee6"C\x14\xd9\xc5C\x93\xe5\x1aD:g\xa8C&\xff\x1fC\xb9\x97\x07D\xbb\xdd\x87D\xc5q\xdaC\xc03\xacCv\xaa\xd7C]\x18,C\xc4c\x11D\x8b\x16>D\xb3\xb0vD\x90\xe3tC\x1a\x12[DM\xae\xb2C\x1c\xd6\xe4Cn+\x82C\xe1\xc34D\x84\x14\x96CcC\x1aD\x8a\xfd\xa9C\xfd@\xf7C\x00\x00\x00\x00'
p402
tp403
bag389
(g390
(I0
tp404
g392
tp405
Rp406
(I1
(I436
tp407
g396
(S'f4'
p408
I0
I1
tp409
Rp410
(I3
S'<'
p411
NNNI-1
I-1
I0
tp412
bI00
S'\x00\x00\x00\x00\xf9\x1c\x0eD;<%Cd\xe9\x04C\xea\x0e\x1bC+\xd2%D\x9ct\xf8C\xfa\x80\x91DS\xca\x01D/\x01PD\xcf\xe7ND\xc21$DD\xb3\xcbC\x98\xd4\x1eD\xa3\x95)DU\\\xa8D\x7f\x15\xebB\xed\x9f\xf8C\xf1[\xddB\xda\x8f\xcbCD\xb9\x1bD9\xe8\x15D>\xffwD\xeb\x01\\D\xa4\xad\x8bCwp7D\x8b\xe1\x13D;\xb4\x03DM\x04\nD\x86A\xcfCxUGD\x11TZD\xe8\xca\x94D\xd15`D\xe6\xfb\x1eD)l\x9fDTN\x1bDxDVDV\x16\x02CD\rdD\xc3c\xd7C\xb4\xb0\x89C\x1a\xfb\xceC\xc8\x14\x9aC\xb4\xd8\xb1C0\x1dcCcf*CE?\xbcC\x13\x83\xdeCM\x99lD\xd4\xa4\xdbCF\x9d\x81C\x80\xa95D\xce\xf9\xacC-b\x1eD>\xd8)D\xd4h\xf8CO\x89\x0eC=\x05~C\xd6\xa4\xe0Cl\t\xf2Cg\xc8ID\xa8o\xf7C|.\xe3C\x7f\xe8%D\xf1\x0bDCz\xa5\x0cD\xd0\x11\xfeC\x0e\xabsC\xf1\xa6\x02D\xa0\x18\x83D\xe1l\xa8D\x9d\t\tD\x89\x17PD\xf8\xda\x8eD\x8f\xc7\x87D-\x14"E\xac\x84\x8dE\xb8\xc3\xb3E\t\x85\xe6E\xa5\x1c\xe5E\xa8\x12\x0fF\xa5\xc2?F\xe6\xe0\xf0E*\xe8\x0fF\x1cw\x11F\x11\xb8\xe2E7\xc0\x96EN\xc7GEO6\x9eE9\xc0\x94E\xf1\xba\x9dE:\xf9\x84E\xf8\xf8\x9bE\xba\x18\x92E\x8dH\x8aEX\xa2\xf4D\x0b(iDI\n\x92D\x1d\xf1\xe7D\xcd\xef\xb2D\xc4|KD\xdc\xa7\'E\xf3G\x0bFL\x9e\xb3F\xbeo\xafF\x01\xdb\x92F\x7f\x11\xa2F\x93\xd9\xbdF\xa1\x84\xa1F\x14`\x88F\x0b\xeeQF\xee\xa45F\xd5\xacNF\xab\xbd;F\xa4GIF\xceu6F\x02\xba2F\xb5\xdc:F0&+Fy\xaa\x13F\xf8\x05&F\xac\xd0\x1aF\x18\xc6\x19FO\x91\x00F\x01\xd3\xf4E\xacM\xebE\xef\r\xe7E\xb2k\xe8E\xe6\x87\xc1E{\xa5\xe2E\xbd\xbb\x02FK\xe2\xc1E\xb1\x1c\xd5E\xa5\xd1\xf7EG\xd2\xf0E\x9e3\xf8E\xede\x1eF\xd6\x07$F\xb3\xc42Fm\xf9(F\x9f>\x16F-2\x13F\xa3M\x0cF\xdd\n\x19F\xe9{\x05F\xf8k\xc6E\xacu\xc5E:\xdf\xd5E\xa1!\xc8E\x8bP\xebE1W\xd4E\xdan\xfaE\xbd\x8b\rFN\xfd\x02F\xc2^\nF\x8f\x89\x08Fv\xd9\x12F\xf0\x05%F9\xcf\x12F\xd6}\x06F\xb1]\xffE\xc7;\xfcE\x86a\xddEu\xa1\xafEU\xd3\xbaE\x9f\xea\xbfE\xeb\xa9\xc4E\xcbC\xf5E\xc3\x16\xcaEP\xe0\xdfE\x16j\xd6E&n\xb9Eq\xaf\xd7E\xf1\xa4\xb8Ej=\xd6E<\xca\xe0E\x18\xfb\xd1E/\x16\xdaE?\xf0\xeaE9&\xe4E\x7f\x0b\xdbEu\xf2\xe3E%\x8a\xefE\x12\x12\xe0Ef\x0e\x00F\xeb\xcb\xebE*\xa1\xd1E\x82\xfa\xf8E\xc9\x8d\xeeE\xd1-\xdaE\xec\xbb\xccEO\xe8\xf3E"\xcf\xffE\x7fC\xf6E\x11\x83\x1cF\xa4\xe7>F\x0bpNF\xacQXFr\nKFT\xd5uF1\x81wF\xf7\x9d\x83F\xe0\xf6\x88F^!\x8fF\\\xa0\x8bF\xac\x0f\x84F\xd0V\x84F\r2\x8bF\xd7\xc3\x9aF \xb7\xa8F\x94K\xa6F@\xc1\xa9Fq\x94\xadF\xfb\x8d\xaeF\x98\xb0\xaeF\xf4\xa2\x9cF1\x16\x99FM\xea\x93F\x07\x15\xa3F\x18W\x9fF\xa1\x9a\x7fF!\x86gF\xbb\xe92Fj\xde\\F\xd7A\x94FY\xe9\xa7F\xc4b\xadFK\x82\xa6F)?\xb7F\xcc\xc0\xa3F4\x8e\xabFPW\xb2F0\xe5\xa2F\xfb\x10\x8eF\xc3\x7f}F\x1f\x80eF\x81WEF.\xcf)F\xc46?F\xad^GF\x92-<Fl\xba7FW\x11\x14F\x8dJ/Fc\xb1\x19F)l\x1fF\xf8\xce\x08FDl\xaeEz;\xdbE$O\x93E3\xa1\xd9E\x0e\xe8\xaeEe\xd2\xafE\x18\xc9\x93EL\xc8\xa7E\x8c\x14\xc9E\xfc2\xbaEx\xf8\xabE\xfb/\xa6Ek\x1c\xa0E\x1d8\xc3EM\xca\xabE\xd8\x13\xafE\x9d\xe7\xc2E:~\xc9E\xef\xaf\xafE/\x18\x96E!\xce\xafE\xcf\xef\xa7E\xa4\x8f\xd0E*\xf2\xa7E20\xb0E\xec\xff\xc5E\xe3\xe2\xb7E,\xdf\xa5Ex\x01\xa5E\xf2\xa4\xbbEv\xe8\xa1Ex\xcd\x9fE\x8f\xdc\xd1E\x8b\x0c\xdbE\xed\xc4\xfaE4\xd0\x08F\x81j\xf6E\x92H\x10F\xaf\x04\x11F\xd2\xc6\rF\xb6\xed\x19F\x88\xff!F*\x92\x1aF\xa1\xae\x1aF\xbf\xb55Fp\xeb.F\x9a~)F\xf5\x9b\x19F?\x18$F7\xcbAF\xd6w/F\x0b?\x06F\xf5x/F\xa9\x84sF\xca\xc4\x82F\xd2\xe6\x8aF\x0e0\x85Fh\x14zF"\xb6KF\xdd\x17*F\x03\xd19F\xde\xde1F\x17\xb4:Ft@.F~\xcc5F!T.F\x06##F\xdc*\x13F\xb1\xd5\x15F\x8f\xe5\x1bFg\x8f\x1fF\\\xfb/FQ\x1cHF\xff|4F{\x8e9F\xb7i=F\xbcK7F"\x9b\x1eF\xb60\x14FV\xb5\x06FEI\xe5E\xb7\xb7\xfeE\xa2^\xfeEC\xcd\xf3E/\x1f\x08F\x95T\x06F5\xd6\x11F\xe7\xaa\x0fF\xcd\x12\x06FJ\xfd\x1cFi\xbeDFe\x02yF\xa2x`E\xf6$*E\xcc\xcb\x98D\x98\x8fsD-L\xa1DG\x82\x0bE;\xf20E\xfe\x84HE\xfc\xa7\xbaELd\x94E\x95oBEnSOE\x9bQJE\xf8b\x8cE\xf2\x9b`Ee\xaeUE\xbd=\x99E\x00\x9f\xa0E\x0c\xa7\xb4E\xe8\xa7\x00F\xad\xc1\xedE\x19J\xd3EC*\x9fE\xc9\xb2\x99Em\xa5rE\xe8\x06AE\x06\xa1\x19E+\xdd\x02E\x1dw\x13D\x1dG\x96D\x11SZD\xd1\x8bJDf\x1fPD\x16\xa9\x1dD\x06C\x93D\xc6\x88mC\xce\x006Df/\x82D\x05x\xa8Dq 3Dw%VC\xbcT+D&\xc8AD\xe5\x0f\x04D\xaeP.DV\x97MDKh\xbcCq\xe5\xd4C\xb4\xf5\xd9C"Z2D\x1a\xe5\x11D\xb1\xf3DDK\xcb\x01D\xeb\xc9\x1eC\x11SMD\xa2\xac\x94CF\xff\x88D\x06\xaaJD\xa1\xe9\xc7C|\x9e\xc6B\xa4\xe1iD\x15\x95\xadC\x15s\xa8C\xfe\xe0\rD\xe2q\xebC\x02X\tC\x97\xb9\x00D\x07\xc7\x0cD\x05\xce)Dz\x85]D\xe4\x17\xd9C\xbb\xab8DAp\x86C\x91\xd2\x80C\xddX\x0fC\xc0<\x7fD\x0b\xd9\x1dD\xe6i\xbbC\xf2[fD(\x01\xd8C\x1e_\x12D6\xc5\xd2B,\xcbHD\xa8\x81rD\xd0\xc5\xbaCD\xf3\x03D<\xc2\x1cD(\x127C\x7f\xfevD\xe5uUC\xab\xf8\xdbC\x0f\xd31D\x91 \xe1C\x05\xb1\x07D\x91\xec\x8dD<\xa2AD'
p413
tp414
bag389
(g390
(I0
tp415
g392
tp416
Rp417
(I1
(I436
tp418
g396
(S'f4'
p419
I0
I1
tp420
Rp421
(I3
S'<'
p422
NNNI-1
I-1
I0
tp423
bI00
S'\x00\x00\x00\x00\x00\x00\x00\x00\x00\x00\x00\x00\x00\x00\x00\x00\x00\x00\x00\x00\xf0\x90<D2\x82RC\\\xaa\xa0C~FSD\xf9y\x90C=K\tD\xf7{\x81CV\x9b\x1fD\x9c9\xddC\x0b2$D&\xff\x9aC\xf0\xc4:Dn\xa0\x17C\x19{1D\xfd\x83\x84C }\x9bD\xaf\xac7D\xd6\x1f*D\x85<.D\xab\x8f\xf7C\xc4LqD?\x8bAD\x13"RDC\x16\xafC\x84\xac\xc5C\x8b\xd3\x1dD\xa4O=DO\xfd$DL8)DDj\x87C\xd0\x91\xacCK\xectC\x06\\\x00D\xdaj\xe5C\x07DXD\x93=\x95C\r)\x13D0\x89\x1eD^\xab\x08Dyj\xcdC\x82\x13$D\x007*D\xd6\x17\xb6C\xb5\xa5.D\xe2\x08>D\'0\xa0B\xd8N.D\x15\xbe-D\xa0\x93\x90C8\x8d^CoS\x85C\xeex\xecB\x82\xc8zD\xa8\x11\x95Dt>eDB\x00\xafC3\xb0\xebCU\x90\xdcC\xb9\xb3\x8fCQK\x8eC\xd4\x92\x82C\tl\x03DV;\xd1C(C0D\x98\xcf\x1aD\x0b\xec~C\xc73BDK\xf5BD\x8474D\xd5\x18YD\x0cD\x9eD\x03\x01\xc1D\xb7]\xa6D\xae\x9a\x14E\xd18\x04E\'O\x99E\x92\xb3\xd0E\x01l\xd4E\x90\xb8\xfaE\xed\x94\x05F\x9b\xf3\xecEv\xa5@F\xae\xb0[F\x9e#)F\x81F)F}\xc9\xb2EZ\xf8mE\xf4,\x84EN\xf4\xa7E.\xe2\x84E\x94\xea\x93E$p\x14E\xb7U\x01E\x94Z\tEx\x87\xcdD!J\x80D\xca\x88\xa1D5\x00\x05E\x7f\xbe\x9cF\xcd\xeb\x9dFm+QF\x1c\x0bXFsG6F\x93p0F\xf5{3F\xcc\xd6UF7v\x1fF\xae\t\x1fF\xd9/fFi\x14WFR\x1b9F\x88\x907Fe46F~^2F\xd2\xea2F\xe6\x05>F8\xb5)F\xa8S+F\x87c(F\x07\x97\x11F\xf3N\x0eF\xf7\xb1\x0cF\x1ff\x12F\xce\xd5\x1fF\xbf\xfd\x16F2\xde\x06F\xdc\x9d\xf6E\x84\xdf\xe1EO/\xc3E\x01\xf0\xd6E\x04\x01\xc9E\xc6l\xbfE\x95\xc0\xc6E%\x8f\xbaE\x12\x18\xc9E\xd8\xed\xb4Er\xf8\xadE\xa0\xa2\xc5E\xd6\xad\xbcE\xa5(\xd8E\x7f\x9d\xc9E\xbd\xee\xc9E\xb0}\xc8E\xba\x17\xc7E\xddu\xcfEX\xde\xc7E\xef\xf8\xc1Ea3\xd2E\x95\xfc\xd5E\x0b\x84\xd1E~\xe4\xcaE\xe3\xa2\xddE~\xe4\xd1EI\xb0\xd5E\xdc\xd4\xc8E{`\xe6E\x81\xb9\xdbEO\xa2\xceE\xb2!\xceEPi\xdfE\x16u\xd8EH\xcb\xc2E%\xef\xd2E\x18s\xd6E\xd9y\xd5E\x92\x10\xdaE\xe40\xe6E`z\xd8E\xbe}\xc9E\xc8\xf3\xd2E\x07\xad\xccEp<\xc9Erx\xf4E\xd0\xe0\xf2E\x16\xf0\x0cFG% F&\xc1$F\x10(7FQ\xd43F\x01\xf1*F \xe8$F9\xfa\x0eF\x17\xc3\tF\xfb\xb0\xc5E\x9c_\xb2E\x13<\xe6EX\xcc\xdcE\xa5\xc7\xb5E\xc0\xa7\xd1E|2\xd3E\x01%\xdaE\x8ev\xb5E7e\xafE\x98H\xb7E\xe0%\xbdE\xe3\xae\xb4E\x80}\xa1E\xbd\xb1\xc1E\x13R\xbcE\xfd\xac\xaaEO\xd9\xa4E\xc9\xf3\xc9Er\xd3\xb0E7\n\xb0E\x87\xa7\xc4E\x99q\xaaEC\xed\xc4E\xee\x9e\xb4E*z\xc5E\x1e\x15\xbeE\xbf\xac\xdfE4\x08\xc3EH\x99\xd8E\xad\x9d\x8bEw\x1c\xddE\x87\x13\xe6El\x12\x93E\x19\xa0\xd5E\xa9l\xeeE"\x88\xfdE\x101\xc3E\x08\x93\xacE\xed1\xaaE\xac\xc6\xaaEeh\x99E\x06\xea\xa2E6\xe1\xc1E\xce\x1a\xafE\x7f|\x9fE\x11X\xacE\x14\xf2\xb9EI\xd8\xbeE\x1c\xb3\xbdEt\x8a\xc5E\xac\xd5\xc7E\x1f\xe0\xc9E\x8a\x0c\xddE~\xe4\xc6E\xd1S\xdcE\xe1\x80.F\xff\xdcwF\x07\xb9\x8bF\tZ\x9aFV\xc9\xa4F\xdek\xa5F\\\xdb\xbaF\xe7\\\xabFe\xae\xabF\xc1\xd2\xafF\xf6\xec\xa5F\xfd\xad\xabF\xcd\xfa\xb3FI\xda\xadF\xf7\xb0\xb3F\xf2\x8d\xa8F\xe5\xc5\x9fFo7\x83F\xec\xa3\x0fF\xa7\x89\xceE\x11\xc1\xdbE\x8d\xa4\xc5E\x90\t\xc0E\x94\xc0\xd3E\x11\xd0\xbcE[\xba\xe2E\xb6\x99\xe8Ei\x1a\xdaE\xa21\xe0EB\x1c\xb6E\xe97\xa9E\xfa\x88\xa7E/\xa7\xbcE\xb2\xc5\xb6Ev\x8c\xdbE\x935\xd0EC\x94\xa9E\xb5Y\xedEbT\xf2E\xd4\xa1\x03F<A\xfeE\x8c\xc3#F\x1dM\x1fFX\xe1\x16F\xfc\xbd\xdaE\xa0\xd5\xb2E\\|\x04F|J\xf9Ec\x93\x03FT\xf5\x0eF\x13\x9a\x08Fm\x18\x0cF\xe3\x15\xfcE;\xeb\xcaE\x12\\\xf0Eg\x9a\xcdE\x91\x1c\xddE\x94q\xe9E/\xbc\xe6EJ\r\xddE\xa6\xc0\xdcE\x11V\xc0EU\xd2\xcbE`Z\xebE\xdfr\xf1E\x1f\x8c\x06FN\xfd\xeeE\x7f\x07\x01FTb\x1aF\xfb\xbd\x17FG\x9f\x13F\xd1\xdf\x07F\xf9w\x08F\x1cY\x0bFZ\xf3\x07F\xfb[\x01F\x82\xc5\x04F\xa5\xa2\x08F\xdb\xfa\xf3E\\\x0f\tF\xdd\x89\x04F\x0f\r\x0cF\xc0\xc7\x07F)\x1b\tF%&\x15F3\xf9\x03F\xa0C\rFB\xae\x07FH\x0c F\x9d\xbf\'FL\x8e\x1dF\xbfG(F\xb8\xaeNFdF\x87F2-\x06F`\x9a\x10E1R\x04E2U\xa2D\xbd\xb4\xdcD]/\xb8D\x8b\x89\xc4C\xce\xe5\x15E\xd9\x97jE\xf7\xebuE\x1b\xdaNE\x8bsfE\xf9K*EL\x97\\E\xbc\x93DEGB\x94EI\x10\xeeE\x9a\xa7\xe5E\x01Q\rFV\x13,F\xc7\xb3\x07F6-\xccEaL\xe2E\xd6\xd1\x98E\x7f\xee\x89E}\x1e&E\xc3*3E\xfe\xe6\tE@q\xbaD\xc92\xd1D`\x0b\xcaD\x00\xfd!D =UDe\xea\x9fDQ\xab0D-\xe3\xdaC\xed\xedZDm\xfa\x1cD\xcbS\xc3C\x93\x89"DT\xf7\x89D\xc4\x1aiD\x9a\xe0sD"dBDF\x87\'D\x8b\x9c\x14D\x9c\xdd\x87C\xcd\xd8\x1eD\xba\x17LD{c=D\xbb*aCS\xe1_C\xfa\x7f\x16D\x17FBDF\x0e\xa2C\x07,\x0bDP\xddrD\x96m\xefB+\xecnC\xf0\x88VD\x8b\xfa\x86C\xf8zrC*\xca5C?a\xd1C\xfeGOD\xa0SKC\xaf,\xddB\xb9\xde\x9cCt\x86\xf5CQHDC^R\xf6Bx\xac*D\xb2X*C\xef\x17zDy6\xeaC\x01\x06\x82D\xaa\x98\x7fD\xe6\xb7\xf7Cx\xf9\x9cD\x83L]D\xfe\xf1\x06C\x1cf\x9cD\xbc-\x89C\x00N\xaeC\xc0\xeb\x08D\xc9\xfb\x8bD\xd6\xbd\x19C\xba\x8a\xa9Dj\xedFD\xf6\xcb\xe9C\xf5\xaf\x8cD;\x12YDO?\x14D\xec\xf6\x8bC\x00\x00\x00\x00\x00\x00\x00\x00\x00\x00\x00\x00\x00\x00\x00\x00'
p424
tp425
basS'collapsed'
p426
I00
sS'inport'
p427
I00
sS'visible'
p428
I01
sS'id'
p429
I4707560040
ssasg217
S'plotter'
p430
ssg219
S'0.0949591568538'
p431
sg43
S'Matplotlib'
p432
sg222
(lp433
F-46.900000000000006
aF84.8
asg224
(lp434
(dp435
g227
S'in0'
p436
sg229
I0
sg230
(lp437
(dp438
g233
(dp439
g235
g436
sg236
I4707579000
sg237
I0
sg238
I4707557608
ssg239
(dp440
g235
g247
sg236
I4685172968
sg237
I0
sg238
I4685076792
ssasg242
Nsg243
I65540
sg244
I200
sg245
I4707579000
sa(dp441
g227
S'in1'
p442
sg229
I1
sg230
(lp443
(dp444
g233
(dp445
g235
g442
sg236
I4707579152
sg237
I1
sg238
I4707557608
ssg239
(dp446
g235
g247
sg236
I4707538952
sg237
I0
sg238
I4707463552
ssasg242
Nsg243
I65540
sg244
I200
sg245
I4707579152
sa(dp447
g227
g251
sg229
I2
sg230
(lp448
(dp449
g233
(dp450
g235
g251
sg236
I4707579304
sg237
I2
sg238
I4707557608
ssg239
(dp451
g235
g247
sg236
I4707440800
sg237
I0
sg238
I4685271576
ssasg242
Nsg243
I65540
sg244
I200
sg245
I4707579304
sa(dp452
g227
S'in3'
p453
sg229
I3
sg230
(lp454
sg242
Nsg243
I65540
sg244
I200
sg245
I4707579456
sa(dp455
g227
S'in4'
p456
sg229
I4
sg230
(lp457
sg242
Nsg243
I65540
sg244
I200
sg245
I4707579608
sa(dp458
g227
S'in5'
p459
sg229
I5
sg230
(lp460
sg242
Nsg243
I65540
sg244
I200
sg245
I4707579760
sa(dp461
g227
S'in6'
p462
sg229
I6
sg230
(lp463
sg242
Nsg243
I65540
sg244
I200
sg245
I4707579912
sa(dp464
g227
S'in7'
p465
sg229
I7
sg230
(lp466
sg242
Nsg243
I65540
sg244
I200
sg245
I4707580064
sasg258
S'0.00727554941267'
p467
sg260
S'core.display.Matplotlib'
p468
sg245
I4707557608
sg262
S'0.103425979614'
p469
sa(dp470
g36
(dp471
g38
(lp472
(dp473
g41
S"<class 'gpi.widgets.ExclusivePushButtons'>"
p474
sg43
S'Complex Display'
p475
sg45
(dp476
S'outport'
p477
I00
sS'quietval'
p478
Nsg50
I4
sS'collapsed'
p479
I00
sS'inport'
p480
I00
sS'visible'
p481
I00
sS'id'
p482
I4683535632
ssa(dp483
g41
S"<class 'gpi.widgets.ExclusivePushButtons'>"
p484
sg43
S'Color Map'
p485
sg45
(dp486
S'outport'
p487
I00
sS'quietval'
p488
Nsg50
I0
sS'collapsed'
p489
I01
sS'inport'
p490
I00
sS'visible'
p491
I01
sS'id'
p492
I4683536696
ssa(dp493
g41
S"<class 'gpi.widgets.SpinBox'>"
p494
sg43
S'Edge Pixels'
p495
sg45
(dp496
S'outport'
p497
I00
sS'quietval'
p498
Nsg50
I0
sS'min'
p499
I0
sS'max'
p500
I2147483647
sS'collapsed'
p501
I00
sS'wrapping'
p502
I00
sS'immediate'
p503
I00
sS'label'
p504
g203
sS'singlestep'
p505
I1
sS'visible'
p506
I00
sS'inport'
p507
I00
sS'id'
p508
I4683537912
ssa(dp509
g41
S"<class 'gpi.widgets.SpinBox'>"
p510
sg43
S'Black Pixels'
p511
sg45
(dp512
S'outport'
p513
I00
sS'quietval'
p514
Nsg50
I0
sS'min'
p515
I0
sS'max'
p516
I2147483647
sS'collapsed'
p517
I00
sS'wrapping'
p518
I00
sS'immediate'
p519
I00
sS'label'
p520
g203
sS'singlestep'
p521
I1
sS'visible'
p522
I00
sS'inport'
p523
I00
sS'id'
p524
I4683547160
ssa(dp525
g41
S"<class 'gpi.widgets.DisplayBox'>"
p526
sg43
S'Viewport:'
p527
sg45
(dp528
S'outport'
p529
I00
sS'scale'
p530
F1.0
sS'quietval'
p531
Nsg50
NsS'collapsed'
p532
I01
sS'interp'
p533
I00
sS'inport'
p534
I00
sS'visible'
p535
I01
sS'noscroll'
p536
I01
sS'points'
p537
NsS'line'
p538
NsS'id'
p539
I4683548072
ssa(dp540
g41
S"<class '/opt/gpi/lib/core/display/GPI/ImageDisplay_GPI.WindowLevel'>"
p541
sg43
S'L W F C:'
p542
sg45
(dp543
S'outport'
p544
I00
sS'quietval'
p545
Nsg50
(dp546
S'window'
p547
I100
sg68
I0
sg65
I100
sS'level'
p548
I50
ssS'min'
p549
I0
sS'max'
p550
I100
sS'collapsed'
p551
I01
sS'inport'
p552
I00
sS'visible'
p553
I01
sS'id'
p554
I4683550504
ssa(dp555
g41
S"<class 'gpi.widgets.ExclusivePushButtons'>"
p556
sg43
S'Scalar Display'
p557
sg45
(dp558
S'outport'
p559
I00
sS'quietval'
p560
Nsg50
I0
sS'collapsed'
p561
I00
sS'inport'
p562
I00
sS'visible'
p563
I01
sS'id'
p564
I4685038256
ssa(dp565
g41
S"<class 'gpi.widgets.DoubleSpinBox'>"
p566
sg43
S'Gamma'
p567
sg45
(dp568
S'outport'
p569
I00
sS'quietval'
p570
Nsg50
F1.0
sS'min'
p571
F0.1
sS'max'
p572
F10.0
sS'collapsed'
p573
I00
sS'wrapping'
p574
I00
sS'immediate'
p575
I00
sS'label'
p576
g203
sS'singlestep'
p577
F0.05
sS'visible'
p578
I01
sS'inport'
p579
I00
sS'decimals'
p580
I3
sS'id'
p581
I4685039016
ssa(dp582
g41
S"<class 'gpi.widgets.ExclusivePushButtons'>"
p583
sg43
S'Zero Ref'
p584
sg45
(dp585
S'outport'
p586
I00
sS'quietval'
p587
Nsg50
I0
sS'collapsed'
p588
I00
sS'inport'
p589
I00
sS'visible'
p590
I01
sS'id'
p591
I4685039928
ssa(dp592
g41
S"<class 'gpi.widgets.PushButton'>"
p593
sg43
S'Fix Range'
p594
sg45
(dp595
S'outport'
p596
I00
sS'quietval'
p597
Nsg50
I00
sS'collapsed'
p598
I00
sS'inport'
p599
I00
sS'visible'
p600
I01
sS'toggle'
p601
I01
sS'button_title'
p602
VAuto-Range On
p603
sS'id'
p604
I4685040840
ssa(dp605
g41
S"<class 'gpi.widgets.DoubleSpinBox'>"
p606
sg43
S'Range Min'
p607
sg45
(dp608
S'outport'
p609
I00
sS'quietval'
p610
Nsg50
F0.0
sS'min'
p611
F-1.7976931348623157e+308
sS'max'
p612
F1.7976931348623157e+308
sS'collapsed'
p613
I00
sS'wrapping'
p614
I00
sS'immediate'
p615
I00
sS'label'
p616
g203
sS'singlestep'
p617
F1.0
sS'visible'
p618
I01
sS'inport'
p619
I00
sS'decimals'
p620
I2
sS'id'
p621
I4685041744
ssa(dp622
g41
S"<class 'gpi.widgets.DoubleSpinBox'>"
p623
sg43
S'Range Max'
p624
sg45
(dp625
S'outport'
p626
I00
sS'quietval'
p627
Nsg50
F30656.06
sS'min'
p628
F-1.7976931348623157e+308
sS'max'
p629
F1.7976931348623157e+308
sS'collapsed'
p630
I00
sS'wrapping'
p631
I00
sS'immediate'
p632
I00
sS'label'
p633
g203
sS'singlestep'
p634
F1.0
sS'visible'
p635
I01
sS'inport'
p636
I00
sS'decimals'
p637
I2
sS'id'
p638
I4685042656
ssasg217
g218
ssg219
S'0.00859014193217'
p639
sg43
S'ImageDisplay'
p640
sg222
(lp641
F102.6
aF85.8
asg224
(lp642
(dp643
g227
g228
sg229
I0
sg230
(lp644
(dp645
g233
(dp646
g235
g228
sg236
I4685043568
sg237
I0
sg238
I4683504384
ssg239
(dp647
g235
g241
sg236
I4707440952
sg237
I1
sg238
I4685271576
ssasg242
Nsg243
I65540
sg244
I100
sg245
I4685043568
sa(dp648
g227
g247
sg229
I0
sg230
(lp649
sg242
Nsg243
I65541
sg244
Nsg245
I4685043720
sasg258
S'0.000849635983908'
p650
sg260
S'core.display.ImageDisplay'
p651
sg245
I4683504384
sg262
S'0.00690507888794'
p652
sa(dp653
g36
(dp654
g38
(lp655
(dp656
g41
S"<class 'gpi.widgets.TextBox'>"
p657
sg43
S'I/O Info:'
p658
sg45
(dp659
S'openExternalLinks'
p660
I00
sS'outport'
p661
I00
sS'quietval'
p662
Nsg50
S'input: (3, 436, 436)\noutput: (436, 436)'
p663
sS'collapsed'
p664
I00
sS'inport'
p665
I00
sS'visible'
p666
I01
sS'wordwrap'
p667
I00
sS'id'
p668
I4707679888
ssa(dp669
g41
S"<class 'gpi.widgets.Slider'>"
p670
sg43
S'Dimension #'
p671
sg45
(dp672
S'outport'
p673
I00
sS'quietval'
p674
Nsg50
I1
sS'min'
p675
I1
sS'max'
p676
I3
sS'collapsed'
p677
I00
sS'inport'
p678
I00
sS'visible'
p679
I01
sS'id'
p680
I4707782888
ssa(dp681
g41
S"<class 'gpi.widgets.Slider'>"
p682
sg43
S'Slice #'
p683
sg45
(dp684
S'outport'
p685
I00
sS'quietval'
p686
Nsg50
I2
sS'min'
p687
I1
sS'max'
p688
I3
sS'collapsed'
p689
I00
sS'inport'
p690
I00
sS'visible'
p691
I01
sS'id'
p692
I4707784104
ssasg217
g218
ssg219
S'0.163831671079'
p693
sg43
S'Slicer'
p694
sg222
(lp695
F-46.900000000000006
aF-40.2
asg224
(lp696
(dp697
g227
g228
sg229
I0
sg230
(lp698
(dp699
g233
(dp700
g235
g228
sg236
I4707785320
sg237
I0
sg238
I4707677456
ssg239
(dp701
g235
g247
sg236
I4683495432
sg237
I0
sg238
I4683439304
ssasg242
Nsg243
I65540
sg244
I100
sg245
I4707785320
sa(dp702
g227
g247
sg229
I0
sg230
(lp703
(dp704
g233
(dp705
g235
g228
sg236
I4683437176
sg237
I0
sg238
I4683324312
ssg239
(dp706
g235
g247
sg236
I4707785472
sg237
I0
sg238
I4707677456
ssasg242
Nsg243
I65541
sg244
Nsg245
I4707785472
sasg258
S'0.0132149571688'
p707
sg260
S'core.shapers.Slicer'
p708
sg245
I4707677456
sg262
S'0.154036998749'
p709
sa(dp710
g36
(dp711
g38
(lp712
(dp713
g41
S"<class 'gpi.widgets.TextBox'>"
p714
sg43
S'I/O Info:'
p715
sg45
(dp716
S'openExternalLinks'
p717
I00
sS'outport'
p718
I00
sS'quietval'
p719
Nsg50
S'input: (436, 436)\noutput: (436,)'
p720
sS'collapsed'
p721
I00
sS'inport'
p722
I00
sS'visible'
p723
I01
sS'wordwrap'
p724
I00
sS'id'
p725
I4685112136
ssa(dp726
g41
S"<class '/opt/gpi/lib/core/shapers/GPI/Reduce_GPI.ReduceSliders'>"
p727
sg43
S'Dimension[-1]'
p728
sg45
(dp729
S'outport'
p730
I00
sS'quietval'
p731
Nsg50
(dp732
g64
I436
sg65
I436
sg66
I3
sg67
I219
sg68
I1
ssS'min'
p733
I1
sS'max'
p734
I436
sS'collapsed'
p735
I00
sS'inport'
p736
I00
sS'visible'
p737
I01
sS'id'
p738
I4685112592
ssa(dp739
g41
S"<class '/opt/gpi/lib/core/shapers/GPI/Reduce_GPI.ReduceSliders'>"
p740
sg43
S'Dimension[-2]'
p741
sg45
(dp742
S'outport'
p743
I00
sS'quietval'
p744
Nsg50
(dp745
g64
I1
sg65
I197
sg66
I2
sg67
I197
sg68
I197
ssS'min'
p746
I1
sS'max'
p747
I436
sS'collapsed'
p748
I00
sS'inport'
p749
I00
sS'visible'
p750
I01
sS'id'
p751
I4685117600
ssa(dp752
g41
S"<class '/opt/gpi/lib/core/shapers/GPI/Reduce_GPI.ReduceSliders'>"
p753
sg43
S'Dimension[-3]'
p754
sg45
(dp755
S'outport'
p756
I00
sS'quietval'
p757
Nsg50
(dp758
g64
I436
sg65
I436
sg66
I3
sg67
I219
sg68
I1
ssS'min'
p759
I1
sS'max'
p760
I436
sS'collapsed'
p761
I00
sS'inport'
p762
I00
sS'visible'
p763
I00
sS'id'
p764
I4685122608
ssa(dp765
g41
S"<class '/opt/gpi/lib/core/shapers/GPI/Reduce_GPI.ReduceSliders'>"
p766
sg43
S'Dimension[-4]'
p767
sg45
(dp768
S'outport'
p769
I00
sS'quietval'
p770
Nsg50
(dp771
g64
I100
sg65
I100
sg66
I3
sg67
I51
sg68
I1
ssS'min'
p772
I1
sS'max'
p773
I100
sS'collapsed'
p774
I00
sS'inport'
p775
I00
sS'visible'
p776
I00
sS'id'
p777
I4685127760
ssa(dp778
g41
S"<class '/opt/gpi/lib/core/shapers/GPI/Reduce_GPI.ReduceSliders'>"
p779
sg43
S'Dimension[-5]'
p780
sg45
(dp781
S'outport'
p782
I00
sS'quietval'
p783
Nsg50
(dp784
g64
I100
sg65
I100
sg66
I3
sg67
I51
sg68
I1
ssS'min'
p785
I1
sS'max'
p786
I100
sS'collapsed'
p787
I00
sS'inport'
p788
I00
sS'visible'
p789
I00
sS'id'
p790
I4685132768
ssa(dp791
g41
S"<class '/opt/gpi/lib/core/shapers/GPI/Reduce_GPI.ReduceSliders'>"
p792
sg43
S'Dimension[-6]'
p793
sg45
(dp794
S'outport'
p795
I00
sS'quietval'
p796
Nsg50
(dp797
g64
I100
sg65
I100
sg66
I3
sg67
I51
sg68
I1
ssS'min'
p798
I1
sS'max'
p799
I100
sS'collapsed'
p800
I00
sS'inport'
p801
I00
sS'visible'
p802
I00
sS'id'
p803
I4685137776
ssa(dp804
g41
S"<class '/opt/gpi/lib/core/shapers/GPI/Reduce_GPI.ReduceSliders'>"
p805
sg43
S'Dimension[-7]'
p806
sg45
(dp807
S'outport'
p808
I00
sS'quietval'
p809
Nsg50
(dp810
g64
I100
sg65
I100
sg66
I3
sg67
I51
sg68
I1
ssS'min'
p811
I1
sS'max'
p812
I100
sS'collapsed'
p813
I00
sS'inport'
p814
I00
sS'visible'
p815
I00
sS'id'
p816
I4685142784
ssa(dp817
g41
S"<class '/opt/gpi/lib/core/shapers/GPI/Reduce_GPI.ReduceSliders'>"
p818
sg43
S'Dimension[-8]'
p819
sg45
(dp820
S'outport'
p821
I00
sS'quietval'
p822
Nsg50
(dp823
g64
I100
sg65
I100
sg66
I3
sg67
I51
sg68
I1
ssS'min'
p824
I1
sS'max'
p825
I100
sS'collapsed'
p826
I00
sS'inport'
p827
I00
sS'visible'
p828
I00
sS'id'
p829
I4685147792
ssa(dp830
g41
S"<class '/opt/gpi/lib/core/shapers/GPI/Reduce_GPI.ReduceSliders'>"
p831
sg43
S'Dimension[-9]'
p832
sg45
(dp833
S'outport'
p834
I00
sS'quietval'
p835
Nsg50
(dp836
g64
I100
sg65
I100
sg66
I3
sg67
I51
sg68
I1
ssS'min'
p837
I1
sS'max'
p838
I100
sS'collapsed'
p839
I00
sS'inport'
p840
I00
sS'visible'
p841
I00
sS'id'
p842
I4685157040
ssa(dp843
g41
S"<class '/opt/gpi/lib/core/shapers/GPI/Reduce_GPI.ReduceSliders'>"
p844
sg43
S'Dimension[-10]'
p845
sg45
(dp846
S'outport'
p847
I00
sS'quietval'
p848
Nsg50
(dp849
g64
I100
sg65
I100
sg66
I3
sg67
I51
sg68
I1
ssS'min'
p850
I1
sS'max'
p851
I100
sS'collapsed'
p852
I00
sS'inport'
p853
I00
sS'visible'
p854
I00
sS'id'
p855
I4685162048
ssa(dp856
g41
S"<class 'gpi.widgets.PushButton'>"
p857
sg43
g194
sg45
(dp858
S'outport'
p859
I00
sS'quietval'
p860
Nsg50
I01
sS'collapsed'
p861
I00
sS'inport'
p862
I00
sS'visible'
p863
I01
sS'toggle'
p864
I01
sS'button_title'
p865
g203
sS'id'
p866
I4685167056
ssa(dp867
g41
S"<class 'gpi.widgets.PushButton'>"
p868
sg43
g207
sg45
(dp869
S'outport'
p870
I00
sS'quietval'
p871
Nsg50
I01
sS'collapsed'
p872
I00
sS'inport'
p873
I00
sS'visible'
p874
I01
sS'toggle'
p875
I01
sS'button_title'
p876
g203
sS'id'
p877
I4685167816
ssasg217
g218
ssg219
S'0.153084635735'
p878
sg43
g221
sg222
(lp879
F-46.900000000000006
aF19.799999999999997
asg224
(lp880
(dp881
g227
g228
sg229
I0
sg230
(lp882
(dp883
g233
(dp884
g235
g228
sg236
I4685172816
sg237
I0
sg238
I4685076792
ssg239
(dp885
g235
g247
sg236
I4683437328
sg237
I0
sg238
I4683324312
ssasg242
Nsg243
I65540
sg244
I100
sg245
I4685172816
sa(dp886
g227
g247
sg229
I0
sg230
(lp887
(dp888
g233
(dp889
g235
g436
sg236
I4707579000
sg237
I0
sg238
I4707557608
ssg239
(dp890
g235
g247
sg236
I4685172968
sg237
I0
sg238
I4685076792
ssasg242
Nsg243
I65541
sg244
Nsg245
I4685172968
sa(dp891
g227
g241
sg229
I1
sg230
(lp892
(dp893
g233
(dp894
g235
g228
sg236
I4707538800
sg237
I0
sg238
I4707463552
ssg239
(dp895
g235
g241
sg236
I4685173120
sg237
I1
sg238
I4685076792
ssasg242
Nsg243
I65541
sg244
Nsg245
I4685173120
sasg258
S'0.0165769337012'
p896
sg260
g261
sg245
I4685076792
sg262
S'0.166740894318'
p897
sa(dp898
g36
(dp899
g38
(lp900
(dp901
g41
S"<class 'gpi.widgets.TextBox'>"
p902
sg43
S'Data Statistics:'
p903
sg45
(dp904
S'openExternalLinks'
p905
I00
sS'outport'
p906
I00
sS'quietval'
p907
Nsg50
S'dimensions: [436, 436]\n\nmin: 0.0, max: 30656.1\nmean: 4095.31\nstd: 5293.0'
p908
sS'collapsed'
p909
I00
sS'inport'
p910
I00
sS'visible'
p911
I01
sS'wordwrap'
p912
I00
sS'id'
p913
I4685243816
ssasg217
g218
ssg219
S'0.139938235283'
p914
sg43
S'Statistics'
p915
sg222
(lp916
F23.099999999999994
aF-10.200000000000003
asg224
(lp917
(dp918
g227
g228
sg229
I0
sg230
(lp919
(dp920
g233
(dp921
g235
g228
sg236
I4685244272
sg237
I0
sg238
I4685208472
ssg239
(dp922
g235
g247
sg236
I4683437328
sg237
I0
sg238
I4683324312
ssasg242
Nsg243
I65540
sg244
I100
sg245
I4685244272
sa(dp923
g227
S'min'
p924
sg229
I0
sg230
(lp925
sg242
Nsg243
I65541
sg244
Nsg245
I4685244424
sa(dp926
g227
S'max'
p927
sg229
I1
sg230
(lp928
sg242
Nsg243
I65541
sg244
Nsg245
I4685244576
sa(dp929
g227
S'mean'
p930
sg229
I2
sg230
(lp931
sg242
Nsg243
I65541
sg244
Nsg245
I4685244728
sa(dp932
g227
S'std'
p933
sg229
I3
sg230
(lp934
sg242
Nsg243
I65541
sg244
Nsg245
I4685244880
sasg258
S'0.0232965042678'
p935
sg260
S'core.math.Statistics'
p936
sg245
I4685208472
sg262
S'0.133778810501'
p937
sa(dp938
g36
(dp939
g38
(lp940
(dp941
g41
S"<class 'gpi.widgets.TextBox'>"
p942
sg43
S'I/O Info:'
p943
sg45
(dp944
S'openExternalLinks'
p945
I00
sS'outport'
p946
I00
sS'quietval'
p947
Nsg50
S'input: (436, 436)\noutput: (436,)'
p948
sS'collapsed'
p949
I00
sS'inport'
p950
I00
sS'visible'
p951
I01
sS'wordwrap'
p952
I00
sS'id'
p953
I4707465832
ssa(dp954
g41
S"<class '/opt/gpi/lib/core/shapers/GPI/Reduce_GPI.ReduceSliders'>"
p955
sg43
S'Dimension[-1]'
p956
sg45
(dp957
S'outport'
p958
I00
sS'quietval'
p959
Nsg50
(dp960
g64
I436
sg65
I436
sg66
I3
sg67
I219
sg68
I1
ssS'min'
p961
I1
sS'max'
p962
I436
sS'collapsed'
p963
I00
sS'inport'
p964
I00
sS'visible'
p965
I01
sS'id'
p966
I4707466288
ssa(dp967
g41
S"<class '/opt/gpi/lib/core/shapers/GPI/Reduce_GPI.ReduceSliders'>"
p968
sg43
S'Dimension[-2]'
p969
sg45
(dp970
S'outport'
p971
I00
sS'quietval'
p972
Nsg50
(dp973
g64
I1
sg65
I230
sg66
I2
sg67
I230
sg68
I230
ssS'min'
p974
I1
sS'max'
p975
I436
sS'collapsed'
p976
I00
sS'inport'
p977
I00
sS'visible'
p978
I01
sS'id'
p979
I4707487824
ssa(dp980
g41
S"<class '/opt/gpi/lib/core/shapers/GPI/Reduce_GPI.ReduceSliders'>"
p981
sg43
S'Dimension[-3]'
p982
sg45
(dp983
S'outport'
p984
I00
sS'quietval'
p985
Nsg50
(dp986
g64
I436
sg65
I436
sg66
I3
sg67
I219
sg68
I1
ssS'min'
p987
I1
sS'max'
p988
I436
sS'collapsed'
p989
I00
sS'inport'
p990
I00
sS'visible'
p991
I00
sS'id'
p992
I4707492832
ssa(dp993
g41
S"<class '/opt/gpi/lib/core/shapers/GPI/Reduce_GPI.ReduceSliders'>"
p994
sg43
S'Dimension[-4]'
p995
sg45
(dp996
S'outport'
p997
I00
sS'quietval'
p998
Nsg50
(dp999
g64
I100
sg65
I100
sg66
I3
sg67
I51
sg68
I1
ssS'min'
p1000
I1
sS'max'
p1001
I100
sS'collapsed'
p1002
I00
sS'inport'
p1003
I00
sS'visible'
p1004
I00
sS'id'
p1005
I4707497840
ssa(dp1006
g41
S"<class '/opt/gpi/lib/core/shapers/GPI/Reduce_GPI.ReduceSliders'>"
p1007
sg43
S'Dimension[-5]'
p1008
sg45
(dp1009
S'outport'
p1010
I00
sS'quietval'
p1011
Nsg50
(dp1012
g64
I100
sg65
I100
sg66
I3
sg67
I51
sg68
I1
ssS'min'
p1013
I1
sS'max'
p1014
I100
sS'collapsed'
p1015
I00
sS'inport'
p1016
I00
sS'visible'
p1017
I00
sS'id'
p1018
I4707502848
ssa(dp1019
g41
S"<class '/opt/gpi/lib/core/shapers/GPI/Reduce_GPI.ReduceSliders'>"
p1020
sg43
S'Dimension[-6]'
p1021
sg45
(dp1022
S'outport'
p1023
I00
sS'quietval'
p1024
Nsg50
(dp1025
g64
I100
sg65
I100
sg66
I3
sg67
I51
sg68
I1
ssS'min'
p1026
I1
sS'max'
p1027
I100
sS'collapsed'
p1028
I00
sS'inport'
p1029
I00
sS'visible'
p1030
I00
sS'id'
p1031
I4707507856
ssa(dp1032
g41
S"<class '/opt/gpi/lib/core/shapers/GPI/Reduce_GPI.ReduceSliders'>"
p1033
sg43
S'Dimension[-7]'
p1034
sg45
(dp1035
S'outport'
p1036
I00
sS'quietval'
p1037
Nsg50
(dp1038
g64
I100
sg65
I100
sg66
I3
sg67
I51
sg68
I1
ssS'min'
p1039
I1
sS'max'
p1040
I100
sS'collapsed'
p1041
I00
sS'inport'
p1042
I00
sS'visible'
p1043
I00
sS'id'
p1044
I4707513008
ssa(dp1045
g41
S"<class '/opt/gpi/lib/core/shapers/GPI/Reduce_GPI.ReduceSliders'>"
p1046
sg43
S'Dimension[-8]'
p1047
sg45
(dp1048
S'outport'
p1049
I00
sS'quietval'
p1050
Nsg50
(dp1051
g64
I100
sg65
I100
sg66
I3
sg67
I51
sg68
I1
ssS'min'
p1052
I1
sS'max'
p1053
I100
sS'collapsed'
p1054
I00
sS'inport'
p1055
I00
sS'visible'
p1056
I00
sS'id'
p1057
I4707518016
ssa(dp1058
g41
S"<class '/opt/gpi/lib/core/shapers/GPI/Reduce_GPI.ReduceSliders'>"
p1059
sg43
S'Dimension[-9]'
p1060
sg45
(dp1061
S'outport'
p1062
I00
sS'quietval'
p1063
Nsg50
(dp1064
g64
I100
sg65
I100
sg66
I3
sg67
I51
sg68
I1
ssS'min'
p1065
I1
sS'max'
p1066
I100
sS'collapsed'
p1067
I00
sS'inport'
p1068
I00
sS'visible'
p1069
I00
sS'id'
p1070
I4707523024
ssa(dp1071
g41
S"<class '/opt/gpi/lib/core/shapers/GPI/Reduce_GPI.ReduceSliders'>"
p1072
sg43
S'Dimension[-10]'
p1073
sg45
(dp1074
S'outport'
p1075
I00
sS'quietval'
p1076
Nsg50
(dp1077
g64
I100
sg65
I100
sg66
I3
sg67
I51
sg68
I1
ssS'min'
p1078
I1
sS'max'
p1079
I100
sS'collapsed'
p1080
I00
sS'inport'
p1081
I00
sS'visible'
p1082
I00
sS'id'
p1083
I4707528032
ssa(dp1084
g41
S"<class 'gpi.widgets.PushButton'>"
p1085
sg43
g194
sg45
(dp1086
S'outport'
p1087
I00
sS'quietval'
p1088
Nsg50
I01
sS'collapsed'
p1089
I00
sS'inport'
p1090
I00
sS'visible'
p1091
I01
sS'toggle'
p1092
I01
sS'button_title'
p1093
g203
sS'id'
p1094
I4707537280
ssa(dp1095
g41
S"<class 'gpi.widgets.PushButton'>"
p1096
sg43
g207
sg45
(dp1097
S'outport'
p1098
I00
sS'quietval'
p1099
Nsg50
I01
sS'collapsed'
p1100
I00
sS'inport'
p1101
I00
sS'visible'
p1102
I01
sS'toggle'
p1103
I01
sS'button_title'
p1104
g203
sS'id'
p1105
I4707538040
ssasg217
g218
ssg219
S'0.154869834582'
p1106
sg43
g221
sg222
(lp1107
F38.099999999999994
aF19.799999999999997
asg224
(lp1108
(dp1109
g227
g228
sg229
I0
sg230
(lp1110
(dp1111
g233
(dp1112
g235
g228
sg236
I4707538800
sg237
I0
sg238
I4707463552
ssg239
(dp1113
g235
g241
sg236
I4685173120
sg237
I1
sg238
I4685076792
ssasg242
Nsg243
I65540
sg244
I100
sg245
I4707538800
sa(dp1114
g227
g247
sg229
I0
sg230
(lp1115
(dp1116
g233
(dp1117
g235
g442
sg236
I4707579152
sg237
I1
sg238
I4707557608
ssg239
(dp1118
g235
g247
sg236
I4707538952
sg237
I0
sg238
I4707463552
ssasg242
Nsg243
I65541
sg244
Nsg245
I4707538952
sa(dp1119
g227
g241
sg229
I1
sg230
(lp1120
(dp1121
g233
(dp1122
g235
g228
sg236
I4707440648
sg237
I0
sg238
I4685271576
ssg239
(dp1123
g235
g241
sg236
I4707539104
sg237
I1
sg238
I4707463552
ssasg242
Nsg243
I65541
sg244
Nsg245
I4707539104
sasg258
S'0.016395301981'
p1124
sg260
g261
sg245
I4707463552
sg262
S'0.15269780159'
p1125
sa(dp1126
g36
(dp1127
g38
(lp1128
(dp1129
g41
S"<class 'gpi.widgets.ExclusivePushButtons'>"
p1130
sg43
S'R I M P'
p1131
sg45
(dp1132
S'outport'
p1133
I00
sS'quietval'
p1134
Nsg50
I2
sS'collapsed'
p1135
I00
sS'inport'
p1136
I00
sS'visible'
p1137
I01
sS'id'
p1138
I4683425192
ssa(dp1139
g41
S"<class 'gpi.widgets.ExclusivePushButtons'>"
p1140
sg43
S'Units'
p1141
sg45
(dp1142
S'outport'
p1143
I00
sS'quietval'
p1144
Nsg50
I1
sS'collapsed'
p1145
I00
sS'inport'
p1146
I00
sS'visible'
p1147
I00
sS'id'
p1148
I4683426104
ssa(dp1149
g41
S"<class 'gpi.widgets.PushButton'>"
p1150
sg43
S'UnWrap'
p1151
sg45
(dp1152
S'outport'
p1153
I00
sS'quietval'
p1154
Nsg50
I00
sS'collapsed'
p1155
I00
sS'inport'
p1156
I00
sS'visible'
p1157
I00
sS'toggle'
p1158
I01
sS'button_title'
p1159
g203
sS'id'
p1160
I4683426864
ssa(dp1161
g41
S"<class 'gpi.widgets.Slider'>"
p1162
sg43
S'UnWrap Dimension'
p1163
sg45
(dp1164
S'outport'
p1165
I00
sS'quietval'
p1166
Nsg50
I0
sS'min'
p1167
I-2
sS'max'
p1168
I1
sS'collapsed'
p1169
I00
sS'inport'
p1170
I00
sS'visible'
p1171
I00
sS'id'
p1172
I4683427624
ssasg217
g218
ssg219
S'0.156118830045'
p1173
sg43
S'RIMP'
p1174
sg222
(lp1175
F-46.900000000000006
aF-10.200000000000003
asg224
(lp1176
(dp1177
g227
g228
sg229
I0
sg230
(lp1178
(dp1179
g233
(dp1180
g235
g228
sg236
I4683437176
sg237
I0
sg238
I4683324312
ssg239
(dp1181
g235
g247
sg236
I4707785472
sg237
I0
sg238
I4707677456
ssasg242
Nsg243
I65540
sg244
I100
sg245
I4683437176
sa(dp1182
g227
g247
sg229
I0
sg230
(lp1183
(dp1184
g233
(dp1185
g235
g228
sg236
I4685244272
sg237
I0
sg238
I4685208472
ssg239
(dp1186
g235
g247
sg236
I4683437328
sg237
I0
sg238
I4683324312
ssa(dp1187
g233
(dp1188
g235
g228
sg236
I4685172816
sg237
I0
sg238
I4685076792
ssg239
(dp1189
g235
g247
sg236
I4683437328
sg237
I0
sg238
I4683324312
ssasg242
Nsg243
I65541
sg244
Nsg245
I4683437328
sasg258
S'0.0143173258641'
p1190
sg260
S'core.math.RIMP'
p1191
sg245
I4683324312
sg262
S'0.150542974472'
p1192
sassS'WALLTIME'
p1193
S'1.20227503777'
p1194
s.